; Function Attrs: mustprogress uwtable
define hidden void @_ZN4lean11diagnostics13record_unfoldERKNS_4nameE(ptr noundef nonnull align 8 captures(none) dereferenceable(8) %0, ptr noundef nonnull readonly align 8 captures(none) dereferenceable(8) %1) local_unnamed_addr #0 align 2 {
  %3 = load ptr, ptr %0, align 8, !tbaa !3
  %4 = ptrtoint ptr %3 to i64
  %5 = and i64 %4, 1
  %.not.i.i = icmp eq i64 %5, 0
  br i1 %.not.i.i, label %6, label %_ZNK4lean10object_ref10to_obj_argEv.exit

6:                                                ; preds = %2
  %.val.i.i.i = load i32, ptr %3, align 4, !tbaa !8
  %7 = icmp sgt i32 %.val.i.i.i, 0
  br i1 %7, label %8, label %10, !prof !11

8:                                                ; preds = %6
  %9 = add nuw nsw i32 %.val.i.i.i, 1
  store i32 %9, ptr %3, align 4, !tbaa !8
  br label %_ZNK4lean10object_ref10to_obj_argEv.exit

10:                                               ; preds = %6
  %.not.i.i.i = icmp eq i32 %.val.i.i.i, 0
  br i1 %.not.i.i.i, label %_ZNK4lean10object_ref10to_obj_argEv.exit, label %11

11:                                               ; preds = %10
  tail call void @lean_inc_ref_cold(ptr noundef nonnull %3)
  %.pre.i = load ptr, ptr %0, align 8, !tbaa !3
  br label %_ZNK4lean10object_ref10to_obj_argEv.exit

_ZNK4lean10object_ref10to_obj_argEv.exit:         ; preds = %2, %8, %10, %11
  %12 = phi ptr [ %3, %2 ], [ %3, %8 ], [ %3, %10 ], [ %.pre.i, %11 ]
  %13 = load ptr, ptr %1, align 8, !tbaa !3
  %14 = ptrtoint ptr %13 to i64
  %15 = and i64 %14, 1
  %.not.i.i2 = icmp eq i64 %15, 0
  br i1 %.not.i.i2, label %16, label %_ZNK4lean10object_ref10to_obj_argEv.exit6

16:                                               ; preds = %_ZNK4lean10object_ref10to_obj_argEv.exit
  %.val.i.i.i3 = load i32, ptr %13, align 4, !tbaa !8
  %17 = icmp sgt i32 %.val.i.i.i3, 0
  br i1 %17, label %18, label %20, !prof !11

18:                                               ; preds = %16
  %19 = add nuw nsw i32 %.val.i.i.i3, 1
  store i32 %19, ptr %13, align 4, !tbaa !8
  br label %_ZNK4lean10object_ref10to_obj_argEv.exit6

20:                                               ; preds = %16
  %.not.i.i.i4 = icmp eq i32 %.val.i.i.i3, 0
  br i1 %.not.i.i.i4, label %_ZNK4lean10object_ref10to_obj_argEv.exit6, label %21

21:                                               ; preds = %20
  tail call void @lean_inc_ref_cold(ptr noundef nonnull %13)
  %.pre.i5 = load ptr, ptr %1, align 8, !tbaa !3
  br label %_ZNK4lean10object_ref10to_obj_argEv.exit6

_ZNK4lean10object_ref10to_obj_argEv.exit6:        ; preds = %_ZNK4lean10object_ref10to_obj_argEv.exit, %18, %20, %21
  %22 = phi ptr [ %13, %_ZNK4lean10object_ref10to_obj_argEv.exit ], [ %13, %18 ], [ %13, %20 ], [ %.pre.i5, %21 ]
  %23 = tail call ptr @lean_kernel_record_unfold(ptr noundef %12, ptr noundef %22)
  store ptr %23, ptr %0, align 8, !tbaa !3
  ret void
}